target datalayout = "e-m:e-p270:32:32-p271:32:32-p272:64:64-i64:64-i128:128-f80:128-n8:16:32:64-S128"
target triple = "x86_64-pc-linux-gnu"

%struct.expert_field = type { i32, i32 }

@ei_gtpv2_ie_data_not_dissected = internal global %struct.expert_field zeroinitializer, align 4
@.str.3 = private unnamed_addr constant [37 x i8] c"The rest of the IE not dissected yet\00", align 1
@hf_gtpv2_spare_bits = internal global i32 0, align 4
@hf_gtpv2_spare = internal global i32 0, align 4
@hf_gtpv2_ck = internal global i32 0, align 4
@hf_gtpv2_ik = internal global i32 0, align 4
@hf_gtpv2_mm_context_sm = internal global i32 0, align 4
@hf_gtpv2_mm_context_drxi = internal global i32 0, align 4
@hf_gtpv2_mm_context_ksi_a = internal global i32 0, align 4
@hf_gtpv2_mm_context_drx = internal global i32 0, align 4
@hf_gtpv2_vdp_length = internal global i32 0, align 4
@hf_gtpv2_mm_context_nr_qui = internal global i32 0, align 4
@hf_gtpv2_mm_context_nr_qua = internal global i32 0, align 4
@hf_gtpv2_mm_context_uamb_ri = internal global i32 0, align 4
@hf_gtpv2_mm_context_samb_ri = internal global i32 0, align 4
@ett_gtpv2_mm_context_flag = internal global i32 0, align 4
@.str.1809 = private unnamed_addr constant [17 x i8] c"MM Context flags\00", align 1

; Function Attrs: null_pointer_is_valid sspstrong uwtable
define internal void @dissect_gtpv2_mm_context_utms_qq(ptr noundef %0, ptr noundef %1, ptr noundef %2, ptr noundef %3, i16 noundef zeroext %4, i8 noundef zeroext %5, i8 noundef zeroext %6, ptr noundef %7) #1 {
  %9 = alloca ptr, align 8
  %10 = alloca ptr, align 8
  %11 = alloca ptr, align 8
  %12 = alloca ptr, align 8
  %13 = alloca i16, align 2
  %14 = alloca i8, align 1
  %15 = alloca i8, align 1
  %16 = alloca ptr, align 8
  %17 = alloca ptr, align 8
  %18 = alloca i32, align 4
  %19 = alloca i8, align 1
  %20 = alloca i8, align 1
  %21 = alloca i8, align 1
  %22 = alloca i8, align 1
  %23 = alloca i8, align 1
  %24 = alloca i8, align 1
  %25 = alloca i8, align 1
  %26 = alloca i32, align 4
  store ptr %0, ptr %9, align 8
  store ptr %1, ptr %10, align 8
  store ptr %2, ptr %11, align 8
  store ptr %3, ptr %12, align 8
  store i16 %4, ptr %13, align 2
  store i8 %5, ptr %14, align 1
  store i8 %6, ptr %15, align 1
  store ptr %7, ptr %16, align 8
  call void @llvm.lifetime.start.p0(i64 8, ptr %17) #11
  call void @llvm.lifetime.start.p0(i64 4, ptr %18) #11
  call void @llvm.lifetime.start.p0(i64 1, ptr %19) #11
  call void @llvm.lifetime.start.p0(i64 1, ptr %20) #11
  call void @llvm.lifetime.start.p0(i64 1, ptr %21) #11
  call void @llvm.lifetime.start.p0(i64 1, ptr %22) #11
  call void @llvm.lifetime.start.p0(i64 1, ptr %23) #11
  call void @llvm.lifetime.start.p0(i64 1, ptr %24) #11
  call void @llvm.lifetime.start.p0(i64 1, ptr %25) #11
  store i32 0, ptr %18, align 4
  %27 = load ptr, ptr %11, align 8
  %28 = load ptr, ptr %9, align 8
  %29 = load i32, ptr %18, align 4
  %30 = load i32, ptr @ett_gtpv2_mm_context_flag, align 4
  %31 = call ptr @proto_tree_add_subtree(ptr noundef %27, ptr noundef %28, i32 noundef %29, i32 noundef 3, i32 noundef %30, ptr noundef null, ptr noundef @.str.1809)
  store ptr %31, ptr %17, align 8
  %32 = load ptr, ptr %17, align 8
  %33 = load i32, ptr @hf_gtpv2_mm_context_sm, align 4
  %34 = load ptr, ptr %9, align 8
  %35 = load i32, ptr %18, align 4
  %36 = call ptr @proto_tree_add_item(ptr noundef %32, i32 noundef %33, ptr noundef %34, i32 noundef %35, i32 noundef 1, i32 noundef 0)
  %37 = load ptr, ptr %17, align 8
  %38 = load i32, ptr @hf_gtpv2_spare_bits, align 4
  %39 = load ptr, ptr %9, align 8
  %40 = load i32, ptr %18, align 4
  %41 = shl i32 %40, 3
  %42 = add i32 %41, 3
  %43 = call ptr @proto_tree_add_bits_item(ptr noundef %37, i32 noundef %38, ptr noundef %39, i32 noundef %42, i32 noundef 1, i32 noundef 0)
  %44 = load ptr, ptr %9, align 8
  %45 = load i32, ptr %18, align 4
  %46 = call zeroext i8 @tvb_get_uint8(ptr noundef %44, i32 noundef %45)
  %47 = zext i8 %46 to i32
  %48 = and i32 %47, 8
  %49 = ashr i32 %48, 3
  %50 = trunc i32 %49 to i8
  store i8 %50, ptr %20, align 1
  %51 = load ptr, ptr %17, align 8
  %52 = load i32, ptr @hf_gtpv2_mm_context_drxi, align 4
  %53 = load ptr, ptr %9, align 8
  %54 = load i32, ptr %18, align 4
  %55 = call ptr @proto_tree_add_item(ptr noundef %51, i32 noundef %52, ptr noundef %53, i32 noundef %54, i32 noundef 1, i32 noundef 0)
  %56 = load ptr, ptr %17, align 8
  %57 = load i32, ptr @hf_gtpv2_mm_context_ksi_a, align 4
  %58 = load ptr, ptr %9, align 8
  %59 = load i32, ptr %18, align 4
  %60 = call ptr @proto_tree_add_item(ptr noundef %56, i32 noundef %57, ptr noundef %58, i32 noundef %59, i32 noundef 1, i32 noundef 0)
  %61 = load i32, ptr %18, align 4
  %62 = add i32 %61, 1
  store i32 %62, ptr %18, align 4
  %63 = load ptr, ptr %9, align 8
  %64 = load i32, ptr %18, align 4
  %65 = call zeroext i8 @tvb_get_uint8(ptr noundef %63, i32 noundef %64)
  store i8 %65, ptr %19, align 1
  %66 = load i8, ptr %19, align 1
  %67 = zext i8 %66 to i32
  %68 = and i32 %67, 224
  %69 = ashr i32 %68, 5
  %70 = trunc i32 %69 to i8
  store i8 %70, ptr %22, align 1
  %71 = load i8, ptr %19, align 1
  %72 = zext i8 %71 to i32
  %73 = and i32 %72, 28
  %74 = trunc i32 %73 to i8
  store i8 %74, ptr %21, align 1
  %75 = load i8, ptr %21, align 1
  %76 = zext i8 %75 to i32
  %77 = ashr i32 %76, 2
  %78 = trunc i32 %77 to i8
  store i8 %78, ptr %21, align 1
  %79 = load i8, ptr %19, align 1
  %80 = zext i8 %79 to i32
  %81 = and i32 %80, 2
  %82 = ashr i32 %81, 1
  %83 = trunc i32 %82 to i8
  store i8 %83, ptr %23, align 1
  %84 = load i8, ptr %19, align 1
  %85 = zext i8 %84 to i32
  %86 = and i32 %85, 1
  %87 = trunc i32 %86 to i8
  store i8 %87, ptr %24, align 1
  %88 = load ptr, ptr %17, align 8
  %89 = load i32, ptr @hf_gtpv2_mm_context_nr_qui, align 4
  %90 = load ptr, ptr %9, align 8
  %91 = load i32, ptr %18, align 4
  %92 = call ptr @proto_tree_add_item(ptr noundef %88, i32 noundef %89, ptr noundef %90, i32 noundef %91, i32 noundef 1, i32 noundef 0)
  %93 = load ptr, ptr %17, align 8
  %94 = load i32, ptr @hf_gtpv2_mm_context_nr_qua, align 4
  %95 = load ptr, ptr %9, align 8
  %96 = load i32, ptr %18, align 4
  %97 = call ptr @proto_tree_add_item(ptr noundef %93, i32 noundef %94, ptr noundef %95, i32 noundef %96, i32 noundef 1, i32 noundef 0)
  %98 = load ptr, ptr %17, align 8
  %99 = load i32, ptr @hf_gtpv2_mm_context_uamb_ri, align 4
  %100 = load ptr, ptr %9, align 8
  %101 = load i32, ptr %18, align 4
  %102 = call ptr @proto_tree_add_item(ptr noundef %98, i32 noundef %99, ptr noundef %100, i32 noundef %101, i32 noundef 1, i32 noundef 0)
  %103 = load ptr, ptr %17, align 8
  %104 = load i32, ptr @hf_gtpv2_mm_context_samb_ri, align 4
  %105 = load ptr, ptr %9, align 8
  %106 = load i32, ptr %18, align 4
  %107 = shl i32 %106, 3
  %108 = add i32 %107, 7
  %109 = call ptr @proto_tree_add_bits_item(ptr noundef %103, i32 noundef %104, ptr noundef %105, i32 noundef %108, i32 noundef 1, i32 noundef 0)
  %110 = load i32, ptr %18, align 4
  %111 = add i32 %110, 1
  store i32 %111, ptr %18, align 4
  %112 = load ptr, ptr %17, align 8
  %113 = load i32, ptr @hf_gtpv2_spare, align 4
  %114 = load ptr, ptr %9, align 8
  %115 = load i32, ptr %18, align 4
  %116 = call ptr @proto_tree_add_item(ptr noundef %112, i32 noundef %113, ptr noundef %114, i32 noundef %115, i32 noundef 1, i32 noundef 0)
  %117 = load i32, ptr %18, align 4
  %118 = add i32 %117, 1
  store i32 %118, ptr %18, align 4
  %119 = load ptr, ptr %11, align 8
  %120 = load i32, ptr @hf_gtpv2_ck, align 4
  %121 = load ptr, ptr %9, align 8
  %122 = load i32, ptr %18, align 4
  %123 = call ptr @proto_tree_add_item(ptr noundef %119, i32 noundef %120, ptr noundef %121, i32 noundef %122, i32 noundef 16, i32 noundef 0)
  %124 = load i32, ptr %18, align 4
  %125 = add i32 %124, 16
  store i32 %125, ptr %18, align 4
  %126 = load ptr, ptr %11, align 8
  %127 = load i32, ptr @hf_gtpv2_ik, align 4
  %128 = load ptr, ptr %9, align 8
  %129 = load i32, ptr %18, align 4
  %130 = call ptr @proto_tree_add_item(ptr noundef %126, i32 noundef %127, ptr noundef %128, i32 noundef %129, i32 noundef 16, i32 noundef 0)
  %131 = load i32, ptr %18, align 4
  %132 = add i32 %131, 16
  store i32 %132, ptr %18, align 4
  %133 = load i8, ptr %21, align 1
  %134 = icmp ne i8 %133, 0
  br i1 %134, label %135, label %141

135:                                              ; preds = %8
  %136 = load ptr, ptr %9, align 8
  %137 = load ptr, ptr %11, align 8
  %138 = load i32, ptr %18, align 4
  %139 = load i8, ptr %21, align 1
  %140 = call i32 @dissect_gtpv2_authentication_quadruplets(ptr noundef %136, ptr noundef %137, i32 noundef %138, i8 noundef zeroext %139)
  store i32 %140, ptr %18, align 4
  br label %141

141:                                              ; preds = %135, %8
  %142 = load i8, ptr %22, align 1
  %143 = icmp ne i8 %142, 0
  br i1 %143, label %144, label %150

144:                                              ; preds = %141
  %145 = load ptr, ptr %9, align 8
  %146 = load ptr, ptr %11, align 8
  %147 = load i32, ptr %18, align 4
  %148 = load i8, ptr %22, align 1
  %149 = call i32 @dissect_gtpv2_authentication_quintuplets(ptr noundef %145, ptr noundef %146, i32 noundef %147, i8 noundef zeroext %148)
  store i32 %149, ptr %18, align 4
  br label %150

150:                                              ; preds = %144, %141
  %151 = load i8, ptr %20, align 1
  %152 = icmp ne i8 %151, 0
  br i1 %152, label %153, label %161

153:                                              ; preds = %150
  %154 = load ptr, ptr %11, align 8
  %155 = load i32, ptr @hf_gtpv2_mm_context_drx, align 4
  %156 = load ptr, ptr %9, align 8
  %157 = load i32, ptr %18, align 4
  %158 = call ptr @proto_tree_add_item(ptr noundef %154, i32 noundef %155, ptr noundef %156, i32 noundef %157, i32 noundef 2, i32 noundef 0)
  %159 = load i32, ptr %18, align 4
  %160 = add i32 %159, 2
  store i32 %160, ptr %18, align 4
  br label %161

161:                                              ; preds = %153, %150
  %162 = load ptr, ptr %9, align 8
  %163 = load ptr, ptr %10, align 8
  %164 = load ptr, ptr %11, align 8
  %165 = load i32, ptr %18, align 4
  %166 = load i8, ptr %24, align 1
  %167 = load i8, ptr %23, align 1
  %168 = call i32 @dissect_gtpv2_mm_context_common_data(ptr noundef %162, ptr noundef %163, ptr noundef %164, i32 noundef %165, i8 noundef zeroext %166, i8 noundef zeroext %167)
  store i32 %168, ptr %18, align 4
  %169 = load i32, ptr %18, align 4
  %170 = load i16, ptr %13, align 2
  %171 = zext i16 %170 to i32
  %172 = icmp uge i32 %169, %171
  br i1 %172, label %173, label %174

173:                                              ; preds = %161
  store i32 1, ptr %26, align 4
  br label %221

174:                                              ; preds = %161
  %175 = load ptr, ptr %9, align 8
  %176 = load ptr, ptr %11, align 8
  %177 = load i32, ptr %18, align 4
  %178 = call i32 @dissect_gtpv2_access_restriction_data(ptr noundef %175, ptr noundef %176, i32 noundef %177)
  store i32 %178, ptr %18, align 4
  %179 = load i32, ptr %18, align 4
  %180 = load i16, ptr %13, align 2
  %181 = zext i16 %180 to i32
  %182 = icmp uge i32 %179, %181
  br i1 %182, label %183, label %184

183:                                              ; preds = %174
  store i32 1, ptr %26, align 4
  br label %221

184:                                              ; preds = %174
  %185 = load ptr, ptr %9, align 8
  %186 = load i32, ptr %18, align 4
  %187 = call zeroext i8 @tvb_get_uint8(ptr noundef %185, i32 noundef %186)
  store i8 %187, ptr %25, align 1
  %188 = load ptr, ptr %11, align 8
  %189 = load i32, ptr @hf_gtpv2_vdp_length, align 4
  %190 = load ptr, ptr %9, align 8
  %191 = load i32, ptr %18, align 4
  %192 = call ptr @proto_tree_add_item(ptr noundef %188, i32 noundef %189, ptr noundef %190, i32 noundef %191, i32 noundef 1, i32 noundef 0)
  %193 = load i32, ptr %18, align 4
  %194 = add i32 %193, 1
  store i32 %194, ptr %18, align 4
  %195 = load i8, ptr %25, align 1
  %196 = zext i8 %195 to i32
  %197 = icmp ne i32 %196, 0
  br i1 %197, label %198, label %209

198:                                              ; preds = %184
  %199 = load ptr, ptr %9, align 8
  %200 = load ptr, ptr %11, align 8
  %201 = load ptr, ptr %10, align 8
  %202 = load i32, ptr %18, align 4
  %203 = load i8, ptr %25, align 1
  %204 = zext i8 %203 to i32
  %205 = call zeroext i16 @de_gmm_voice_domain_pref(ptr noundef %199, ptr noundef %200, ptr noundef %201, i32 noundef %202, i32 noundef %204, ptr noundef null, i32 noundef 0)
  %206 = zext i16 %205 to i32
  %207 = load i32, ptr %18, align 4
  %208 = add i32 %207, %206
  store i32 %208, ptr %18, align 4
  br label %209

209:                                              ; preds = %198, %184
  %210 = load i32, ptr %18, align 4
  %211 = load i16, ptr %13, align 2
  %212 = zext i16 %211 to i32
  %213 = icmp ult i32 %210, %212
  br i1 %213, label %214, label %220

214:                                              ; preds = %209
  %215 = load ptr, ptr %11, align 8
  %216 = load ptr, ptr %10, align 8
  %217 = load ptr, ptr %9, align 8
  %218 = load i32, ptr %18, align 4
  %219 = call ptr (ptr, ptr, ptr, ptr, i32, i32, ptr, ...) @proto_tree_add_expert_format(ptr noundef %215, ptr noundef %216, ptr noundef @ei_gtpv2_ie_data_not_dissected, ptr noundef %217, i32 noundef %218, i32 noundef -1, ptr noundef @.str.3)
  br label %220

220:                                              ; preds = %214, %209
  store i32 0, ptr %26, align 4
  br label %221

221:                                              ; preds = %220, %183, %173
  call void @llvm.lifetime.end.p0(i64 1, ptr %25) #11
  call void @llvm.lifetime.end.p0(i64 1, ptr %24) #11
  call void @llvm.lifetime.end.p0(i64 1, ptr %23) #11
  call void @llvm.lifetime.end.p0(i64 1, ptr %22) #11
  call void @llvm.lifetime.end.p0(i64 1, ptr %21) #11
  call void @llvm.lifetime.end.p0(i64 1, ptr %20) #11
  call void @llvm.lifetime.end.p0(i64 1, ptr %19) #11
  call void @llvm.lifetime.end.p0(i64 4, ptr %18) #11
  call void @llvm.lifetime.end.p0(i64 8, ptr %17) #11
  %222 = load i32, ptr %26, align 4
  switch i32 %222, label %224 [
    i32 0, label %223
    i32 1, label %223
  ]

223:                                              ; preds = %221, %221
  ret void

224:                                              ; preds = %221
  unreachable
}