; Function Attrs: null_pointer_is_valid sspstrong uwtable
define internal void @dissect_gtpv2_mm_context_utms_qq(ptr noundef %0, ptr noundef %1, ptr noundef %2, ptr readnone captures(none) %3, i16 noundef zeroext %4, i8 zeroext %5, i8 zeroext %6, ptr readnone captures(none) %7) #1 {
  %9 = load i32, ptr @ett_gtpv2_mm_context_flag, align 4
  %10 = tail call ptr @proto_tree_add_subtree(ptr noundef %2, ptr noundef %0, i32 noundef 0, i32 noundef 3, i32 noundef %9, ptr noundef null, ptr noundef nonnull @.str.1809)
  %11 = load i32, ptr @hf_gtpv2_mm_context_sm, align 4
  %12 = tail call ptr @proto_tree_add_item(ptr noundef %10, i32 noundef %11, ptr noundef %0, i32 noundef 0, i32 noundef 1, i32 noundef 0)
  %13 = load i32, ptr @hf_gtpv2_spare_bits, align 4
  %14 = tail call ptr @proto_tree_add_bits_item(ptr noundef %10, i32 noundef %13, ptr noundef %0, i32 noundef 3, i32 noundef 1, i32 noundef 0)
  %15 = tail call zeroext i8 @tvb_get_uint8(ptr noundef %0, i32 noundef 0)
  %16 = load i32, ptr @hf_gtpv2_mm_context_drxi, align 4
  %17 = tail call ptr @proto_tree_add_item(ptr noundef %10, i32 noundef %16, ptr noundef %0, i32 noundef 0, i32 noundef 1, i32 noundef 0)
  %18 = load i32, ptr @hf_gtpv2_mm_context_ksi_a, align 4
  %19 = tail call ptr @proto_tree_add_item(ptr noundef %10, i32 noundef %18, ptr noundef %0, i32 noundef 0, i32 noundef 1, i32 noundef 0)
  %20 = tail call zeroext i8 @tvb_get_uint8(ptr noundef %0, i32 noundef 1)
  %21 = lshr i8 %20, 5
  %22 = lshr i8 %20, 2
  %23 = and i8 %22, 7
  %24 = lshr i8 %20, 1
  %25 = and i8 %24, 1
  %26 = and i8 %20, 1
  %27 = load i32, ptr @hf_gtpv2_mm_context_nr_qui, align 4
  %28 = tail call ptr @proto_tree_add_item(ptr noundef %10, i32 noundef %27, ptr noundef %0, i32 noundef 1, i32 noundef 1, i32 noundef 0)
  %29 = load i32, ptr @hf_gtpv2_mm_context_nr_qua, align 4
  %30 = tail call ptr @proto_tree_add_item(ptr noundef %10, i32 noundef %29, ptr noundef %0, i32 noundef 1, i32 noundef 1, i32 noundef 0)
  %31 = load i32, ptr @hf_gtpv2_mm_context_uamb_ri, align 4
  %32 = tail call ptr @proto_tree_add_item(ptr noundef %10, i32 noundef %31, ptr noundef %0, i32 noundef 1, i32 noundef 1, i32 noundef 0)
  %33 = load i32, ptr @hf_gtpv2_mm_context_samb_ri, align 4
  %34 = tail call ptr @proto_tree_add_bits_item(ptr noundef %10, i32 noundef %33, ptr noundef %0, i32 noundef 15, i32 noundef 1, i32 noundef 0)
  %35 = load i32, ptr @hf_gtpv2_spare, align 4
  %36 = tail call ptr @proto_tree_add_item(ptr noundef %10, i32 noundef %35, ptr noundef %0, i32 noundef 2, i32 noundef 1, i32 noundef 0)
  %37 = load i32, ptr @hf_gtpv2_ck, align 4
  %38 = tail call ptr @proto_tree_add_item(ptr noundef %2, i32 noundef %37, ptr noundef %0, i32 noundef 3, i32 noundef 16, i32 noundef 0)
  %39 = load i32, ptr @hf_gtpv2_ik, align 4
  %40 = tail call ptr @proto_tree_add_item(ptr noundef %2, i32 noundef %39, ptr noundef %0, i32 noundef 19, i32 noundef 16, i32 noundef 0)
  %.not = icmp eq i8 %23, 0
  br i1 %.not, label %43, label %41

41:                                               ; preds = %8
  %42 = tail call fastcc i32 @dissect_gtpv2_authentication_quadruplets(ptr noundef %0, ptr noundef %2, i32 noundef 35, i8 noundef zeroext %23)
  br label %43

43:                                               ; preds = %41, %8
  %.0 = phi i32 [ %42, %41 ], [ 35, %8 ]
  %.not102 = icmp ult i8 %20, 32
  br i1 %.not102, label %46, label %44

44:                                               ; preds = %43
  %45 = tail call fastcc i32 @dissect_gtpv2_authentication_quintuplets(ptr noundef %0, ptr noundef %2, i32 noundef %.0, i8 noundef zeroext %21)
  br label %46

46:                                               ; preds = %44, %43
  %.1 = phi i32 [ %45, %44 ], [ %.0, %43 ]
  %47 = and i8 %15, 8
  %.not103 = icmp eq i8 %47, 0
  br i1 %.not103, label %52, label %48

48:                                               ; preds = %46
  %49 = load i32, ptr @hf_gtpv2_mm_context_drx, align 4
  %50 = tail call ptr @proto_tree_add_item(ptr noundef %2, i32 noundef %49, ptr noundef %0, i32 noundef %.1, i32 noundef 2, i32 noundef 0)
  %51 = add i32 %.1, 2
  br label %52

52:                                               ; preds = %48, %46
  %.2 = phi i32 [ %51, %48 ], [ %.1, %46 ]
  %53 = tail call fastcc i32 @dissect_gtpv2_mm_context_common_data(ptr noundef %0, ptr noundef %1, ptr noundef %2, i32 noundef %.2, i8 noundef zeroext %26, i8 noundef zeroext %25)
  %54 = zext i16 %4 to i32
  %.not104 = icmp ult i32 %53, %54
  br i1 %.not104, label %55, label %71

55:                                               ; preds = %52
  %56 = tail call fastcc i32 @dissect_gtpv2_access_restriction_data(ptr noundef %0, ptr noundef %2, i32 noundef %53)
  %.not105 = icmp ult i32 %56, %54
  br i1 %.not105, label %57, label %71

57:                                               ; preds = %55
  %58 = tail call zeroext i8 @tvb_get_uint8(ptr noundef %0, i32 noundef %56)
  %59 = load i32, ptr @hf_gtpv2_vdp_length, align 4
  %60 = tail call ptr @proto_tree_add_item(ptr noundef %2, i32 noundef %59, ptr noundef %0, i32 noundef %56, i32 noundef 1, i32 noundef 0)
  %61 = add nuw nsw i32 %56, 1
  %.not106 = icmp eq i8 %58, 0
  br i1 %.not106, label %67, label %62

62:                                               ; preds = %57
  %63 = zext i8 %58 to i32
  %64 = tail call zeroext i16 @de_gmm_voice_domain_pref(ptr noundef %0, ptr noundef %2, ptr noundef %1, i32 noundef %61, i32 noundef %63, ptr noundef null, i32 noundef 0)
  %65 = zext i16 %64 to i32
  %66 = add nuw nsw i32 %61, %65
  br label %67

67:                                               ; preds = %62, %57
  %.3 = phi i32 [ %66, %62 ], [ %61, %57 ]
  %68 = icmp samesign ult i32 %.3, %54
  br i1 %68, label %69, label %71

69:                                               ; preds = %67
  %70 = tail call ptr (ptr, ptr, ptr, ptr, i32, i32, ptr, ...) @proto_tree_add_expert_format(ptr noundef %2, ptr noundef %1, ptr noundef nonnull @ei_gtpv2_ie_data_not_dissected, ptr noundef %0, i32 noundef %.3, i32 noundef -1, ptr noundef nonnull @.str.3)
  br label %71

71:                                               ; preds = %67, %69, %55, %52
  ret void
}